; Function Attrs: mustprogress uwtable
define dso_local void @_ZN31cmExportTryCompileFileGenerator15GetFileSetFilesB5cxx11EP17cmGeneratorTargetP9cmFileSetP14cmTargetExport(ptr dead_on_unwind noalias writable sret(%"class.std::__cxx11::basic_string") align 8 %0, ptr nocapture nonnull readnone align 8 %1, ptr nocapture readnone %2, ptr nocapture noundef readonly %3, ptr nocapture readnone %4) unnamed_addr #3 align 2 personality ptr @__gxx_personality_v0 {
  %6 = alloca %"class.std::__cxx11::basic_string", align 8
  %7 = getelementptr inbounds i8, ptr %3, i64 104
  %8 = getelementptr inbounds i8, ptr %3, i64 112
  %9 = load ptr, ptr %8, align 8, !noalias !17
  %10 = load ptr, ptr %7, align 8, !noalias !17
  %11 = icmp eq ptr %9, %10
  br i1 %11, label %12, label %13

12:                                               ; preds = %5
  call void @_ZNSt7__cxx1112basic_stringIcSt11char_traitsIcESaIcEEC1Ev(ptr noundef nonnull align 8 dereferenceable(32) %6) #17
  br label %_ZN6cmList9to_stringISt6vectorI2BTINSt7__cxx1112basic_stringIcSt11char_traitsIcESaIcEEEESaIS9_EETnNSt9enable_ifIXsr2cm8is_rangeIT_EE5valueEiE4typeELi0EEES8_RKSD_.exit

13:                                               ; preds = %5
  %.sroa.2.0.copyload.i = load ptr, ptr getelementptr inbounds (%"class.std::basic_string_view", ptr @_ZN6cmList17element_separatorE, i64 0, i32 1), align 8, !noalias !22
  %.sroa.0.0.copyload.i = load i64, ptr @_ZN6cmList17element_separatorE, align 8, !noalias !22
  call void @_ZN6cmList4JoinIN9__gnu_cxx17__normal_iteratorIPK2BTINSt7__cxx1112basic_stringIcSt11char_traitsIcESaIcEEEESt6vectorISA_SaISA_EEEEEES9_T_SH_St17basic_string_viewIcS7_E(ptr dead_on_unwind nonnull writable sret(%"class.std::__cxx11::basic_string") align 8 %6, ptr %10, ptr %9, i64 %.sroa.0.0.copyload.i, ptr %.sroa.2.0.copyload.i)
  br label %_ZN6cmList9to_stringISt6vectorI2BTINSt7__cxx1112basic_stringIcSt11char_traitsIcESaIcEEEESaIS9_EETnNSt9enable_ifIXsr2cm8is_rangeIT_EE5valueEiE4typeELi0EEES8_RKSD_.exit

_ZN6cmList9to_stringISt6vectorI2BTINSt7__cxx1112basic_stringIcSt11char_traitsIcESaIcEEEESaIS9_EETnNSt9enable_ifIXsr2cm8is_rangeIT_EE5valueEiE4typeELi0EEES8_RKSD_.exit: ; preds = %12, %13
  %14 = call { i64, ptr } @_ZNKSt7__cxx1112basic_stringIcSt11char_traitsIcESaIcEEcvSt17basic_string_viewIcS2_EEv(ptr noundef nonnull align 8 dereferenceable(32) %6) #17
  %15 = extractvalue { i64, ptr } %14, 0
  %16 = extractvalue { i64, ptr } %14, 1
  invoke void @_ZN17cmOutputConverter14EscapeForCMakeB5cxx11ESt17basic_string_viewIcSt11char_traitsIcEENS_10WrapQuotesE(ptr dead_on_unwind writable sret(%"class.std::__cxx11::basic_string") align 8 %0, i64 %15, ptr %16, i32 noundef 0)
          to label %17 unwind label %18

17:                                               ; preds = %_ZN6cmList9to_stringISt6vectorI2BTINSt7__cxx1112basic_stringIcSt11char_traitsIcESaIcEEEESaIS9_EETnNSt9enable_ifIXsr2cm8is_rangeIT_EE5valueEiE4typeELi0EEES8_RKSD_.exit
  call void @_ZNSt7__cxx1112basic_stringIcSt11char_traitsIcESaIcEED1Ev(ptr noundef nonnull align 8 dereferenceable(32) %6) #17
  ret void

18:                                               ; preds = %_ZN6cmList9to_stringISt6vectorI2BTINSt7__cxx1112basic_stringIcSt11char_traitsIcESaIcEEEESaIS9_EETnNSt9enable_ifIXsr2cm8is_rangeIT_EE5valueEiE4typeELi0EEES8_RKSD_.exit
  %19 = landingpad { ptr, i32 }
          cleanup
  call void @_ZNSt7__cxx1112basic_stringIcSt11char_traitsIcESaIcEED1Ev(ptr noundef nonnull align 8 dereferenceable(32) %6) #17
  resume { ptr, i32 } %19
}